target datalayout = "e-m:e-p270:32:32-p271:32:32-p272:64:64-i64:64-i128:128-f80:128-n8:16:32:64-S128"
target triple = "x86_64-pc-linux-gnu"

%struct.smart_string = type { ptr, i64, i64 }
%struct.__va_list_tag = type { i32, i32, ptr, ptr }

@zend_printf_to_smart_string = hidden global ptr null, align 8
@.str = private unnamed_addr constant [1 x i8] zeroinitializer, align 1

; Function Attrs: nounwind uwtable
define i64 @zend_vspprintf(ptr noundef %0, i64 noundef %1, ptr noundef %2, ptr noundef %3) #0 {
  %5 = alloca ptr, align 8
  %6 = alloca i64, align 8
  %7 = alloca ptr, align 8
  %8 = alloca i64, align 8
  %9 = alloca ptr, align 8
  %10 = alloca ptr, align 8
  %11 = alloca %struct.smart_string, align 8
  store ptr %0, ptr %7, align 8
  store i64 %1, ptr %8, align 8
  store ptr %2, ptr %9, align 8
  store ptr %3, ptr %10, align 8
  call void @llvm.memset.p0.i64(ptr align 8 %11, i8 0, i64 24, i1 false)
  %12 = load ptr, ptr %7, align 8
  %13 = icmp ne ptr %12, null
  br i1 %13, label %15, label %14

14:                                               ; preds = %4
  store i64 0, ptr %6, align 8
  br label %53

15:                                               ; preds = %4
  %16 = load ptr, ptr @zend_printf_to_smart_string, align 8
  %17 = load ptr, ptr %9, align 8
  %18 = load ptr, ptr %10, align 8
  call void %16(ptr noundef %11, ptr noundef %17, ptr noundef %18)
  %19 = load i64, ptr %8, align 8
  %20 = icmp ne i64 %19, 0
  br i1 %20, label %21, label %29

21:                                               ; preds = %15
  %22 = getelementptr inbounds %struct.smart_string, ptr %11, i32 0, i32 1
  %23 = load i64, ptr %22, align 8
  %24 = load i64, ptr %8, align 8
  %25 = icmp ugt i64 %23, %24
  br i1 %25, label %26, label %29

26:                                               ; preds = %21
  %27 = load i64, ptr %8, align 8
  %28 = getelementptr inbounds %struct.smart_string, ptr %11, i32 0, i32 1
  store i64 %27, ptr %28, align 8
  br label %29

29:                                               ; preds = %26, %21, %15
  store ptr %11, ptr %5, align 8
  %30 = load ptr, ptr %5, align 8
  %31 = load ptr, ptr %30, align 8
  %32 = icmp ne ptr %31, null
  br i1 %32, label %33, label %40

33:                                               ; preds = %29
  %34 = load ptr, ptr %5, align 8
  %35 = load ptr, ptr %34, align 8
  %36 = load ptr, ptr %5, align 8
  %37 = getelementptr inbounds %struct.smart_string, ptr %36, i32 0, i32 1
  %38 = load i64, ptr %37, align 8
  %39 = getelementptr inbounds i8, ptr %35, i64 %38
  store i8 0, ptr %39, align 1
  br label %40

40:                                               ; preds = %33, %29
  %41 = getelementptr inbounds %struct.smart_string, ptr %11, i32 0, i32 0
  %42 = load ptr, ptr %41, align 8
  %43 = icmp ne ptr %42, null
  br i1 %43, label %44, label %50

44:                                               ; preds = %40
  %45 = getelementptr inbounds %struct.smart_string, ptr %11, i32 0, i32 0
  %46 = load ptr, ptr %45, align 8
  %47 = load ptr, ptr %7, align 8
  store ptr %46, ptr %47, align 8
  %48 = getelementptr inbounds %struct.smart_string, ptr %11, i32 0, i32 1
  %49 = load i64, ptr %48, align 8
  store i64 %49, ptr %6, align 8
  br label %53

50:                                               ; preds = %40
  %51 = call noalias ptr @_estrndup(ptr noundef @.str, i64 noundef 0)
  %52 = load ptr, ptr %7, align 8
  store ptr %51, ptr %52, align 8
  store i64 0, ptr %6, align 8
  br label %53

53:                                               ; preds = %50, %44, %14
  %54 = load i64, ptr %6, align 8
  ret i64 %54
}

; Function Attrs: nounwind uwtable
define i64 @zend_spprintf_unchecked(ptr noundef %0, i64 noundef %1, ptr noundef %2, ...) #0 {
  %4 = alloca ptr, align 8
  %5 = alloca i64, align 8
  %6 = alloca ptr, align 8
  %7 = alloca [1 x %struct.__va_list_tag], align 16
  %8 = alloca i64, align 8
  store ptr %0, ptr %4, align 8
  store i64 %1, ptr %5, align 8
  store ptr %2, ptr %6, align 8
  %9 = getelementptr inbounds [1 x %struct.__va_list_tag], ptr %7, i64 0, i64 0
  call void @llvm.va_start(ptr %9)
  %10 = load ptr, ptr %4, align 8
  %11 = load i64, ptr %5, align 8
  %12 = load ptr, ptr %6, align 8
  %13 = getelementptr inbounds [1 x %struct.__va_list_tag], ptr %7, i64 0, i64 0
  %14 = call i64 @zend_vspprintf(ptr noundef %10, i64 noundef %11, ptr noundef %12, ptr noundef %13)
  store i64 %14, ptr %8, align 8
  %15 = getelementptr inbounds [1 x %struct.__va_list_tag], ptr %7, i64 0, i64 0
  call void @llvm.va_end(ptr %15)
  %16 = load i64, ptr %8, align 8
  ret i64 %16
}